target datalayout = "e-m:e-p270:32:32-p271:32:32-p272:64:64-i64:64-i128:128-f80:128-n8:16:32:64-S128"
target triple = "x86_64-pc-linux-gnu"

%struct.rb_data_type_struct = type { ptr, %struct.anon, ptr, ptr, i64 }
%struct.anon = type { ptr, ptr, ptr, ptr, [1 x ptr] }
%struct.rb_digest_metadata_t = type { i32, i64, i64, i64, ptr, ptr, ptr }
%struct.RTypedData = type { %struct.RBasic, ptr, i64, ptr }
%struct.RBasic = type { i64, i64 }

@rb_cDigest_Base = internal global i64 0, align 8
@rb_eRuntimeError = external global i64, align 8
@rb_eNotImpError = external global i64, align 8
@.str.32 = private unnamed_addr constant [34 x i8] c"Digest::Base is an abstract class\00", align 1
@digest_type = internal constant %struct.rb_data_type_struct { ptr @.str.3, %struct.anon { ptr null, ptr inttoptr (i64 -1 to ptr), ptr null, ptr null, [1 x ptr] zeroinitializer }, ptr null, ptr null, i64 33 }, align 8
@.str.37 = private unnamed_addr constant [30 x i8] c"Digest initialization failed.\00", align 1

; Function Attrs: inlinehint nounwind sspstrong uwtable
define internal void @algo_init(ptr noundef %0, ptr noundef %1) #2 {
  %3 = alloca ptr, align 8
  %4 = alloca ptr, align 8
  store ptr %0, ptr %3, align 8, !tbaa !6
  store ptr %1, ptr %4, align 8, !tbaa !6
  %5 = load ptr, ptr %3, align 8, !tbaa !6
  %6 = getelementptr inbounds nuw %struct.rb_digest_metadata_t, ptr %5, i32 0, i32 4
  %7 = load ptr, ptr %6, align 8, !tbaa !48
  %8 = load ptr, ptr %4, align 8, !tbaa !6
  %9 = call i32 %7(ptr noundef %8)
  %10 = icmp ne i32 %9, 1
  br i1 %10, label %11, label %13

11:                                               ; preds = %2
  %12 = load i64, ptr @rb_eRuntimeError, align 8, !tbaa !10
  call void (i64, ptr, ...) @rb_raise(i64 noundef %12, ptr noundef @.str.37) #20
  unreachable

13:                                               ; preds = %2
  ret void
}

; Function Attrs: nounwind sspstrong uwtable
define internal i64 @rb_digest_base_alloc(i64 noundef %0) #0 {
  %2 = alloca i64, align 8
  %3 = alloca ptr, align 8
  %4 = alloca i64, align 8
  %5 = alloca ptr, align 8
  store i64 %0, ptr %2, align 8, !tbaa !10
  call void @llvm.lifetime.start.p0(i64 8, ptr %3) #21
  call void @llvm.lifetime.start.p0(i64 8, ptr %4) #21
  call void @llvm.lifetime.start.p0(i64 8, ptr %5) #21
  %6 = load i64, ptr %2, align 8, !tbaa !10
  %7 = load i64, ptr @rb_cDigest_Base, align 8, !tbaa !10
  %8 = icmp eq i64 %6, %7
  br i1 %8, label %9, label %11

9:                                                ; preds = %1
  %10 = load i64, ptr @rb_eNotImpError, align 8, !tbaa !10
  call void (i64, ptr, ...) @rb_raise(i64 noundef %10, ptr noundef @.str.32) #20
  unreachable

11:                                               ; preds = %1
  %12 = load i64, ptr %2, align 8, !tbaa !10
  %13 = call ptr @get_digest_base_metadata(i64 noundef %12)
  store ptr %13, ptr %3, align 8, !tbaa !6
  %14 = load i64, ptr %2, align 8, !tbaa !10
  %15 = load ptr, ptr %3, align 8, !tbaa !6
  %16 = getelementptr inbounds nuw %struct.rb_digest_metadata_t, ptr %15, i32 0, i32 3
  %17 = load i64, ptr %16, align 8, !tbaa !18
  %18 = call i64 @rb_data_typed_object_zalloc(i64 noundef %14, i64 noundef %17, ptr noundef @digest_type)
  store i64 %18, ptr %4, align 8, !tbaa !10
  %19 = load i64, ptr %4, align 8, !tbaa !10
  %20 = inttoptr i64 %19 to ptr
  %21 = getelementptr inbounds nuw %struct.RTypedData, ptr %20, i32 0, i32 3
  %22 = load ptr, ptr %21, align 8, !tbaa !20
  store ptr %22, ptr %5, align 8, !tbaa !6
  %23 = load ptr, ptr %3, align 8, !tbaa !6
  %24 = load ptr, ptr %5, align 8, !tbaa !6
  call void @algo_init(ptr noundef %23, ptr noundef %24)
  %25 = load i64, ptr %4, align 8, !tbaa !10
  call void @llvm.lifetime.end.p0(i64 8, ptr %5) #21
  call void @llvm.lifetime.end.p0(i64 8, ptr %4) #21
  call void @llvm.lifetime.end.p0(i64 8, ptr %3) #21
  ret i64 %25
}