; Function Attrs: nounwind sspstrong uwtable
define internal i64 @rb_digest_base_alloc(i64 noundef %0) #0 {
  %2 = load i64, ptr @rb_cDigest_Base, align 8, !tbaa !6
  %3 = icmp eq i64 %0, %2
  br i1 %3, label %4, label %6

4:                                                ; preds = %1
  %5 = load i64, ptr @rb_eNotImpError, align 8, !tbaa !6
  tail call void (i64, ptr, ...) @rb_raise(i64 noundef %5, ptr noundef nonnull @.str.32) #10
  unreachable

6:                                                ; preds = %1
  %7 = tail call fastcc ptr @get_digest_base_metadata(i64 noundef %0)
  %8 = getelementptr inbounds nuw i8, ptr %7, i64 24
  %9 = load i64, ptr %8, align 8, !tbaa !52
  %10 = tail call i64 @rb_data_typed_object_zalloc(i64 noundef %0, i64 noundef %9, ptr noundef nonnull @digest_type) #9
  %11 = inttoptr i64 %10 to ptr
  %12 = getelementptr inbounds nuw i8, ptr %11, i64 32
  %13 = load ptr, ptr %12, align 8, !tbaa !55
  %14 = getelementptr i8, ptr %7, i64 32
  %.val = load ptr, ptr %14, align 8, !tbaa !58
  %15 = tail call i32 %.val(ptr noundef %13) #9
  %.not.i = icmp eq i32 %15, 1
  br i1 %.not.i, label %algo_init.exit, label %16

16:                                               ; preds = %6
  %17 = load i64, ptr @rb_eRuntimeError, align 8, !tbaa !6
  tail call void (i64, ptr, ...) @rb_raise(i64 noundef %17, ptr noundef nonnull @.str.37) #10
  unreachable

algo_init.exit:                                   ; preds = %6
  ret i64 %10
}